target datalayout = "e-m:e-p270:32:32-p271:32:32-p272:64:64-i64:64-i128:128-f80:128-n8:16:32:64-S128"
target triple = "x86_64-pc-linux-gnu"

%"struct.std::atomic.46" = type { %"struct.std::__atomic_base.47" }
%"struct.std::__atomic_base.47" = type { i32 }
%"struct.google::CheckOpString" = type { ptr }
%"class.google::LogMessageFatal" = type { %"class.google::LogMessage" }
%"class.google::LogMessage" = type { ptr, ptr }
%"class.folly::RequestData" = type <{ ptr, %"struct.std::atomic.46", [4 x i8] }>
%"class.google::base::CheckOpMessageBuilder" = type { ptr }

@.str.9 = private unnamed_addr constant [7 x i8] c"rc > 0\00", align 1
@.str.10 = private unnamed_addr constant [116 x i8] c"generated/home/dtcxzyw/WorkSpace/Projects/compilers/llvm-opt-benchmark/bench/folly/folly/folly/io/async/Request.cpp\00", align 1
@.str.11 = private unnamed_addr constant [8 x i8] c"rc >= 0\00", align 1

; Function Attrs: inlinehint mustprogress uwtable
define linkonce_odr void @_ZN6google22MakeCheckOpValueStringIiEEvPSoRKT_(ptr noundef %0, ptr noundef nonnull align 4 dereferenceable(4) %1) #15 comdat {
  %3 = alloca ptr, align 8
  %4 = alloca ptr, align 8
  store ptr %0, ptr %3, align 8, !tbaa !379
  store ptr %1, ptr %4, align 8, !tbaa !67
  %5 = load ptr, ptr %3, align 8, !tbaa !379
  %6 = load ptr, ptr %4, align 8, !tbaa !67
  %7 = load i32, ptr %6, align 4, !tbaa !25
  %8 = call noundef nonnull align 8 dereferenceable(8) ptr @_ZNSolsEi(ptr noundef nonnull align 8 dereferenceable(8) %5, i32 noundef %7)
  ret void
}

; Function Attrs: mustprogress nounwind uwtable
define linkonce_odr noundef ptr @_ZN6google4base21CheckOpMessageBuilder7ForVar1Ev(ptr noundef nonnull align 8 dereferenceable(8) %0) #2 comdat align 2 {
  %2 = alloca ptr, align 8
  store ptr %0, ptr %2, align 8, !tbaa !381
  %3 = load ptr, ptr %2, align 8
  %4 = getelementptr inbounds nuw %"class.google::base::CheckOpMessageBuilder", ptr %3, i32 0, i32 0
  %5 = load ptr, ptr %4, align 8, !tbaa !383
  ret ptr %5
}

; Function Attrs: mustprogress noinline uwtable
define linkonce_odr noundef ptr @_ZN6google17MakeCheckOpStringIiiEEPNSt7__cxx1112basic_stringIcSt11char_traitsIcESaIcEEERKT_RKT0_PKc(ptr noundef nonnull align 4 dereferenceable(4) %0, ptr noundef nonnull align 4 dereferenceable(4) %1, ptr noundef %2) #22 comdat personality ptr @__gxx_personality_v0 {
  %4 = alloca ptr, align 8
  %5 = alloca ptr, align 8
  %6 = alloca ptr, align 8
  %7 = alloca %"class.google::base::CheckOpMessageBuilder", align 8
  %8 = alloca ptr, align 8
  %9 = alloca i32, align 4
  store ptr %0, ptr %4, align 8, !tbaa !67
  store ptr %1, ptr %5, align 8, !tbaa !67
  store ptr %2, ptr %6, align 8, !tbaa !86
  call void @llvm.lifetime.start.p0(i64 8, ptr %7) #12
  %10 = load ptr, ptr %6, align 8, !tbaa !86
  call void @_ZN6google4base21CheckOpMessageBuilderC1EPKc(ptr noundef nonnull align 8 dereferenceable(8) %7, ptr noundef %10)
  %11 = invoke noundef ptr @_ZN6google4base21CheckOpMessageBuilder7ForVar1Ev(ptr noundef nonnull align 8 dereferenceable(8) %7)
          to label %12 unwind label %21

12:                                               ; preds = %3
  %13 = load ptr, ptr %4, align 8, !tbaa !67
  invoke void @_ZN6google22MakeCheckOpValueStringIiEEvPSoRKT_(ptr noundef %11, ptr noundef nonnull align 4 dereferenceable(4) %13)
          to label %14 unwind label %21

14:                                               ; preds = %12
  %15 = invoke noundef ptr @_ZN6google4base21CheckOpMessageBuilder7ForVar2Ev(ptr noundef nonnull align 8 dereferenceable(8) %7)
          to label %16 unwind label %21

16:                                               ; preds = %14
  %17 = load ptr, ptr %5, align 8, !tbaa !67
  invoke void @_ZN6google22MakeCheckOpValueStringIiEEvPSoRKT_(ptr noundef %15, ptr noundef nonnull align 4 dereferenceable(4) %17)
          to label %18 unwind label %21

18:                                               ; preds = %16
  %19 = invoke noundef ptr @_ZN6google4base21CheckOpMessageBuilder9NewStringB5cxx11Ev(ptr noundef nonnull align 8 dereferenceable(8) %7)
          to label %20 unwind label %21

20:                                               ; preds = %18
  call void @_ZN6google4base21CheckOpMessageBuilderD1Ev(ptr noundef nonnull align 8 dereferenceable(8) %7) #12
  call void @llvm.lifetime.end.p0(i64 8, ptr %7) #12
  ret ptr %19

21:                                               ; preds = %18, %16, %14, %12, %3
  %22 = landingpad { ptr, i32 }
          cleanup
  %23 = extractvalue { ptr, i32 } %22, 0
  store ptr %23, ptr %8, align 8
  %24 = extractvalue { ptr, i32 } %22, 1
  store i32 %24, ptr %9, align 4
  call void @_ZN6google4base21CheckOpMessageBuilderD1Ev(ptr noundef nonnull align 8 dereferenceable(8) %7) #12
  call void @llvm.lifetime.end.p0(i64 8, ptr %7) #12
  br label %25

25:                                               ; preds = %21
  %26 = load ptr, ptr %8, align 8
  %27 = load i32, ptr %9, align 4
  %28 = insertvalue { ptr, i32 } poison, ptr %26, 0
  %29 = insertvalue { ptr, i32 } %28, i32 %27, 1
  resume { ptr, i32 } %29
}

; Function Attrs: inlinehint mustprogress uwtable
define linkonce_odr noundef ptr @_ZN6google12Check_GEImplIiiEEPNSt7__cxx1112basic_stringIcSt11char_traitsIcESaIcEEERKT_RKT0_PKc(ptr noundef nonnull align 4 dereferenceable(4) %0, ptr noundef nonnull align 4 dereferenceable(4) %1, ptr noundef %2) #15 comdat {
  %4 = alloca ptr, align 8
  %5 = alloca ptr, align 8
  %6 = alloca ptr, align 8
  %7 = alloca ptr, align 8
  store ptr %0, ptr %5, align 8, !tbaa !67
  store ptr %1, ptr %6, align 8, !tbaa !67
  store ptr %2, ptr %7, align 8, !tbaa !86
  %8 = load ptr, ptr %5, align 8, !tbaa !67
  %9 = load i32, ptr %8, align 4, !tbaa !25
  %10 = load ptr, ptr %6, align 8, !tbaa !67
  %11 = load i32, ptr %10, align 4, !tbaa !25
  %12 = icmp sge i32 %9, %11
  %13 = xor i1 %12, true
  %14 = xor i1 %13, true
  %15 = zext i1 %14 to i64
  %16 = call i64 @llvm.expect.i64(i64 %15, i64 1)
  %17 = icmp ne i64 %16, 0
  br i1 %17, label %18, label %19

18:                                               ; preds = %3
  store ptr null, ptr %4, align 8
  br label %24

19:                                               ; preds = %3
  %20 = load ptr, ptr %5, align 8, !tbaa !67
  %21 = load ptr, ptr %6, align 8, !tbaa !67
  %22 = load ptr, ptr %7, align 8, !tbaa !86
  %23 = call noundef ptr @_ZN6google17MakeCheckOpStringIiiEEPNSt7__cxx1112basic_stringIcSt11char_traitsIcESaIcEEERKT_RKT0_PKc(ptr noundef nonnull align 4 dereferenceable(4) %20, ptr noundef nonnull align 4 dereferenceable(4) %21, ptr noundef %22)
  store ptr %23, ptr %4, align 8
  br label %24

24:                                               ; preds = %19, %18
  %25 = load ptr, ptr %4, align 8
  ret ptr %25
}

; Function Attrs: inlinehint mustprogress uwtable
define linkonce_odr noundef ptr @_ZN6google12Check_GTImplIiiEEPNSt7__cxx1112basic_stringIcSt11char_traitsIcESaIcEEERKT_RKT0_PKc(ptr noundef nonnull align 4 dereferenceable(4) %0, ptr noundef nonnull align 4 dereferenceable(4) %1, ptr noundef %2) #15 comdat {
  %4 = alloca ptr, align 8
  %5 = alloca ptr, align 8
  %6 = alloca ptr, align 8
  %7 = alloca ptr, align 8
  store ptr %0, ptr %5, align 8, !tbaa !67
  store ptr %1, ptr %6, align 8, !tbaa !67
  store ptr %2, ptr %7, align 8, !tbaa !86
  %8 = load ptr, ptr %5, align 8, !tbaa !67
  %9 = load i32, ptr %8, align 4, !tbaa !25
  %10 = load ptr, ptr %6, align 8, !tbaa !67
  %11 = load i32, ptr %10, align 4, !tbaa !25
  %12 = icmp sgt i32 %9, %11
  %13 = xor i1 %12, true
  %14 = xor i1 %13, true
  %15 = zext i1 %14 to i64
  %16 = call i64 @llvm.expect.i64(i64 %15, i64 1)
  %17 = icmp ne i64 %16, 0
  br i1 %17, label %18, label %19

18:                                               ; preds = %3
  store ptr null, ptr %4, align 8
  br label %24

19:                                               ; preds = %3
  %20 = load ptr, ptr %5, align 8, !tbaa !67
  %21 = load ptr, ptr %6, align 8, !tbaa !67
  %22 = load ptr, ptr %7, align 8, !tbaa !86
  %23 = call noundef ptr @_ZN6google17MakeCheckOpStringIiiEEPNSt7__cxx1112basic_stringIcSt11char_traitsIcESaIcEEERKT_RKT0_PKc(ptr noundef nonnull align 4 dereferenceable(4) %20, ptr noundef nonnull align 4 dereferenceable(4) %21, ptr noundef %22)
  store ptr %23, ptr %4, align 8
  br label %24

24:                                               ; preds = %19, %18
  %25 = load ptr, ptr %4, align 8
  ret ptr %25
}

; Function Attrs: inlinehint mustprogress uwtable
define linkonce_odr noundef ptr @_ZN6google12Check_GEImplB5cxx11EiiPKc(i32 noundef %0, i32 noundef %1, ptr noundef %2) #15 comdat {
  %4 = alloca i32, align 4
  %5 = alloca i32, align 4
  %6 = alloca ptr, align 8
  store i32 %0, ptr %4, align 4, !tbaa !25
  store i32 %1, ptr %5, align 4, !tbaa !25
  store ptr %2, ptr %6, align 8, !tbaa !86
  %7 = load ptr, ptr %6, align 8, !tbaa !86
  %8 = call noundef ptr @_ZN6google12Check_GEImplIiiEEPNSt7__cxx1112basic_stringIcSt11char_traitsIcESaIcEEERKT_RKT0_PKc(ptr noundef nonnull align 4 dereferenceable(4) %4, ptr noundef nonnull align 4 dereferenceable(4) %5, ptr noundef %7)
  ret ptr %8
}

; Function Attrs: mustprogress nounwind uwtable
define linkonce_odr noundef zeroext i1 @_ZNK6google13CheckOpStringcvbEv(ptr noundef nonnull align 8 dereferenceable(8) %0) #2 comdat align 2 {
  %2 = alloca ptr, align 8
  store ptr %0, ptr %2, align 8, !tbaa !375
  %3 = load ptr, ptr %2, align 8
  %4 = getelementptr inbounds nuw %"struct.google::CheckOpString", ptr %3, i32 0, i32 0
  %5 = load ptr, ptr %4, align 8, !tbaa !377
  %6 = icmp ne ptr %5, null
  %7 = zext i1 %6 to i64
  %8 = call i64 @llvm.expect.i64(i64 %7, i64 0)
  %9 = icmp ne i64 %8, 0
  ret i1 %9
}

; Function Attrs: mustprogress nounwind uwtable
define linkonce_odr void @_ZN6google13CheckOpStringC2EPNSt7__cxx1112basic_stringIcSt11char_traitsIcESaIcEEE(ptr noundef nonnull align 8 dereferenceable(8) %0, ptr noundef %1) unnamed_addr #2 comdat align 2 {
  %3 = alloca ptr, align 8
  %4 = alloca ptr, align 8
  store ptr %0, ptr %3, align 8, !tbaa !375
  store ptr %1, ptr %4, align 8, !tbaa !12
  %5 = load ptr, ptr %3, align 8
  %6 = getelementptr inbounds nuw %"struct.google::CheckOpString", ptr %5, i32 0, i32 0
  %7 = load ptr, ptr %4, align 8, !tbaa !12
  store ptr %7, ptr %6, align 8, !tbaa !377
  ret void
}

; Function Attrs: inlinehint mustprogress uwtable
define linkonce_odr noundef ptr @_ZN6google12Check_GTImplB5cxx11EiiPKc(i32 noundef %0, i32 noundef %1, ptr noundef %2) #15 comdat {
  %4 = alloca i32, align 4
  %5 = alloca i32, align 4
  %6 = alloca ptr, align 8
  store i32 %0, ptr %4, align 4, !tbaa !25
  store i32 %1, ptr %5, align 4, !tbaa !25
  store ptr %2, ptr %6, align 8, !tbaa !86
  %7 = load ptr, ptr %6, align 8, !tbaa !86
  %8 = call noundef ptr @_ZN6google12Check_GTImplIiiEEPNSt7__cxx1112basic_stringIcSt11char_traitsIcESaIcEEERKT_RKT0_PKc(ptr noundef nonnull align 4 dereferenceable(4) %4, ptr noundef nonnull align 4 dereferenceable(4) %5, ptr noundef %7)
  ret ptr %8
}

; Function Attrs: inlinehint mustprogress nounwind uwtable
define linkonce_odr noundef i32 @_ZN6google21GetReferenceableValueEi(i32 noundef %0) #11 comdat {
  %2 = alloca i32, align 4
  store i32 %0, ptr %2, align 4, !tbaa !25
  %3 = load i32, ptr %2, align 4, !tbaa !25
  ret i32 %3
}

; Function Attrs: alwaysinline mustprogress nounwind uwtable
define linkonce_odr noundef i32 @_ZNSt13__atomic_baseIiE9fetch_subEiSt12memory_order(ptr noundef nonnull align 4 dereferenceable(4) %0, i32 noundef %1, i32 noundef %2) #8 comdat align 2 {
  %4 = alloca ptr, align 8
  %5 = alloca i32, align 4
  %6 = alloca i32, align 4
  %7 = alloca i32, align 4
  %8 = alloca i32, align 4
  store ptr %0, ptr %4, align 8, !tbaa !373
  store i32 %1, ptr %5, align 4, !tbaa !25
  store i32 %2, ptr %6, align 4, !tbaa !65
  %9 = load ptr, ptr %4, align 8
  %10 = getelementptr inbounds nuw %"struct.std::__atomic_base.47", ptr %9, i32 0, i32 0
  %11 = load i32, ptr %6, align 4, !tbaa !65
  %12 = load i32, ptr %5, align 4, !tbaa !25
  store i32 %12, ptr %7, align 4, !tbaa !25
  switch i32 %11, label %13 [
    i32 1, label %16
    i32 2, label %16
    i32 3, label %19
    i32 4, label %22
    i32 5, label %25
  ]

13:                                               ; preds = %3
  %14 = load i32, ptr %7, align 4
  %15 = atomicrmw sub ptr %10, i32 %14 monotonic, align 4
  store i32 %15, ptr %8, align 4
  br label %28

16:                                               ; preds = %3, %3
  %17 = load i32, ptr %7, align 4
  %18 = atomicrmw sub ptr %10, i32 %17 acquire, align 4
  store i32 %18, ptr %8, align 4
  br label %28

19:                                               ; preds = %3
  %20 = load i32, ptr %7, align 4
  %21 = atomicrmw sub ptr %10, i32 %20 release, align 4
  store i32 %21, ptr %8, align 4
  br label %28

22:                                               ; preds = %3
  %23 = load i32, ptr %7, align 4
  %24 = atomicrmw sub ptr %10, i32 %23 acq_rel, align 4
  store i32 %24, ptr %8, align 4
  br label %28

25:                                               ; preds = %3
  %26 = load i32, ptr %7, align 4
  %27 = atomicrmw sub ptr %10, i32 %26 seq_cst, align 4
  store i32 %27, ptr %8, align 4
  br label %28

28:                                               ; preds = %25, %22, %19, %16, %13
  %29 = load i32, ptr %8, align 4, !tbaa !25
  ret i32 %29
}

; Function Attrs: mustprogress uwtable
define void @_ZN5folly11RequestData20releaseRefDeleteOnlyEv(ptr noundef nonnull align 8 dereferenceable(12) %0) #0 align 2 personality ptr @__gxx_personality_v0 {
  %2 = alloca ptr, align 8
  %3 = alloca i32, align 4
  %4 = alloca %"struct.google::CheckOpString", align 8
  %5 = alloca %"class.google::LogMessageFatal", align 8
  %6 = alloca ptr, align 8
  %7 = alloca i32, align 4
  store ptr %0, ptr %2, align 8, !tbaa !370
  %8 = load ptr, ptr %2, align 8
  call void @llvm.lifetime.start.p0(i64 4, ptr %3) #12
  %9 = getelementptr inbounds nuw %"class.folly::RequestData", ptr %8, i32 0, i32 1
  %10 = call noundef i32 @_ZNSt13__atomic_baseIiE9fetch_subEiSt12memory_order(ptr noundef nonnull align 4 dereferenceable(4) %9, i32 noundef 1, i32 noundef 4) #12
  %11 = sub nsw i32 %10, 1
  store i32 %11, ptr %3, align 4, !tbaa !25
  br label %12

12:                                               ; preds = %29, %1
  br i1 false, label %13, label %30

13:                                               ; preds = %12
  br label %14

14:                                               ; preds = %13
  call void @llvm.lifetime.start.p0(i64 8, ptr %4) #12
  %15 = load i32, ptr %3, align 4, !tbaa !25
  %16 = call noundef i32 @_ZN6google21GetReferenceableValueEi(i32 noundef %15)
  %17 = call noundef i32 @_ZN6google21GetReferenceableValueEi(i32 noundef 0)
  %18 = call noundef ptr @_ZN6google12Check_GEImplB5cxx11EiiPKc(i32 noundef %16, i32 noundef %17, ptr noundef @.str.11)
  call void @_ZN6google13CheckOpStringC2EPNSt7__cxx1112basic_stringIcSt11char_traitsIcESaIcEEE(ptr noundef nonnull align 8 dereferenceable(8) %4, ptr noundef %18)
  %19 = call noundef zeroext i1 @_ZNK6google13CheckOpStringcvbEv(ptr noundef nonnull align 8 dereferenceable(8) %4)
  br i1 %19, label %21, label %20

20:                                               ; preds = %14
  call void @llvm.lifetime.end.p0(i64 8, ptr %4) #12
  br label %29

21:                                               ; preds = %14
  call void @llvm.lifetime.start.p0(i64 16, ptr %5) #12
  call void @_ZN6google15LogMessageFatalC1EPKciRKNS_13CheckOpStringE(ptr noundef nonnull align 8 dereferenceable(16) %5, ptr noundef @.str.10, i32 noundef 84, ptr noundef nonnull align 8 dereferenceable(8) %4)
  %22 = invoke noundef nonnull align 8 dereferenceable(8) ptr @_ZN6google10LogMessage6streamEv(ptr noundef nonnull align 8 dereferenceable(16) %5)
          to label %23 unwind label %24

23:                                               ; preds = %21
  call void @_ZN6google15LogMessageFatalD1Ev(ptr noundef nonnull align 8 dereferenceable(16) %5) #38
  unreachable

24:                                               ; preds = %21
  %25 = landingpad { ptr, i32 }
          cleanup
  %26 = extractvalue { ptr, i32 } %25, 0
  store ptr %26, ptr %6, align 8
  %27 = extractvalue { ptr, i32 } %25, 1
  store i32 %27, ptr %7, align 4
  call void @_ZN6google15LogMessageFatalD1Ev(ptr noundef nonnull align 8 dereferenceable(16) %5) #38
  unreachable

28:                                               ; No predecessors!
  call void @llvm.lifetime.end.p0(i64 16, ptr %5) #12
  call void @llvm.lifetime.end.p0(i64 8, ptr %4) #12
  call void @llvm.lifetime.end.p0(i64 4, ptr %3) #12
  br label %41

29:                                               ; preds = %20
  br label %12, !llvm.loop !386

30:                                               ; preds = %12
  %31 = load i32, ptr %3, align 4, !tbaa !25
  %32 = icmp eq i32 %31, 0
  br i1 %32, label %33, label %40

33:                                               ; preds = %30
  %34 = icmp eq ptr %8, null
  br i1 %34, label %39, label %35

35:                                               ; preds = %33
  %36 = load ptr, ptr %8, align 8, !tbaa !259
  %37 = getelementptr inbounds ptr, ptr %36, i64 1
  %38 = load ptr, ptr %37, align 8
  call void %38(ptr noundef nonnull align 8 dereferenceable(12) %8) #12
  br label %39

39:                                               ; preds = %35, %33
  br label %40

40:                                               ; preds = %39, %30
  call void @llvm.lifetime.end.p0(i64 4, ptr %3) #12
  ret void

41:                                               ; preds = %28
  %42 = load ptr, ptr %6, align 8
  %43 = load i32, ptr %7, align 4
  %44 = insertvalue { ptr, i32 } poison, ptr %42, 0
  %45 = insertvalue { ptr, i32 } %44, i32 %43, 1
  resume { ptr, i32 } %45
}

; Function Attrs: mustprogress uwtable
define void @_ZN5folly11RequestData19releaseRefClearOnlyEv(ptr noundef nonnull align 8 dereferenceable(12) %0) #0 align 2 personality ptr @__gxx_personality_v0 {
  %2 = alloca ptr, align 8
  %3 = alloca i32, align 4
  %4 = alloca %"struct.google::CheckOpString", align 8
  %5 = alloca %"class.google::LogMessageFatal", align 8
  %6 = alloca ptr, align 8
  %7 = alloca i32, align 4
  store ptr %0, ptr %2, align 8, !tbaa !370
  %8 = load ptr, ptr %2, align 8
  call void @llvm.lifetime.start.p0(i64 4, ptr %3) #12
  %9 = getelementptr inbounds nuw %"class.folly::RequestData", ptr %8, i32 0, i32 1
  %10 = call noundef i32 @_ZNSt13__atomic_baseIiE9fetch_subEiSt12memory_order(ptr noundef nonnull align 4 dereferenceable(4) %9, i32 noundef 4096, i32 noundef 4) #12
  %11 = sub nsw i32 %10, 4096
  store i32 %11, ptr %3, align 4, !tbaa !25
  br label %12

12:                                               ; preds = %29, %1
  br i1 false, label %13, label %30

13:                                               ; preds = %12
  br label %14

14:                                               ; preds = %13
  call void @llvm.lifetime.start.p0(i64 8, ptr %4) #12
  %15 = load i32, ptr %3, align 4, !tbaa !25
  %16 = call noundef i32 @_ZN6google21GetReferenceableValueEi(i32 noundef %15)
  %17 = call noundef i32 @_ZN6google21GetReferenceableValueEi(i32 noundef 0)
  %18 = call noundef ptr @_ZN6google12Check_GTImplB5cxx11EiiPKc(i32 noundef %16, i32 noundef %17, ptr noundef @.str.9)
  call void @_ZN6google13CheckOpStringC2EPNSt7__cxx1112basic_stringIcSt11char_traitsIcESaIcEEE(ptr noundef nonnull align 8 dereferenceable(8) %4, ptr noundef %18)
  %19 = call noundef zeroext i1 @_ZNK6google13CheckOpStringcvbEv(ptr noundef nonnull align 8 dereferenceable(8) %4)
  br i1 %19, label %21, label %20

20:                                               ; preds = %14
  call void @llvm.lifetime.end.p0(i64 8, ptr %4) #12
  br label %29

21:                                               ; preds = %14
  call void @llvm.lifetime.start.p0(i64 16, ptr %5) #12
  call void @_ZN6google15LogMessageFatalC1EPKciRKNS_13CheckOpStringE(ptr noundef nonnull align 8 dereferenceable(16) %5, ptr noundef @.str.10, i32 noundef 74, ptr noundef nonnull align 8 dereferenceable(8) %4)
  %22 = invoke noundef nonnull align 8 dereferenceable(8) ptr @_ZN6google10LogMessage6streamEv(ptr noundef nonnull align 8 dereferenceable(16) %5)
          to label %23 unwind label %24

23:                                               ; preds = %21
  call void @_ZN6google15LogMessageFatalD1Ev(ptr noundef nonnull align 8 dereferenceable(16) %5) #38
  unreachable

24:                                               ; preds = %21
  %25 = landingpad { ptr, i32 }
          cleanup
  %26 = extractvalue { ptr, i32 } %25, 0
  store ptr %26, ptr %6, align 8
  %27 = extractvalue { ptr, i32 } %25, 1
  store i32 %27, ptr %7, align 4
  call void @_ZN6google15LogMessageFatalD1Ev(ptr noundef nonnull align 8 dereferenceable(16) %5) #38
  unreachable

28:                                               ; No predecessors!
  call void @llvm.lifetime.end.p0(i64 16, ptr %5) #12
  call void @llvm.lifetime.end.p0(i64 8, ptr %4) #12
  call void @llvm.lifetime.end.p0(i64 4, ptr %3) #12
  br label %38

29:                                               ; preds = %20
  br label %12, !llvm.loop !372

30:                                               ; preds = %12
  %31 = load i32, ptr %3, align 4, !tbaa !25
  %32 = icmp slt i32 %31, 4096
  br i1 %32, label %33, label %37

33:                                               ; preds = %30
  %34 = load ptr, ptr %8, align 8, !tbaa !259
  %35 = getelementptr inbounds ptr, ptr %34, i64 5
  %36 = load ptr, ptr %35, align 8
  call void %36(ptr noundef nonnull align 8 dereferenceable(12) %8)
  br label %37

37:                                               ; preds = %33, %30
  call void @llvm.lifetime.end.p0(i64 4, ptr %3) #12
  ret void

38:                                               ; preds = %28
  %39 = load ptr, ptr %6, align 8
  %40 = load i32, ptr %7, align 4
  %41 = insertvalue { ptr, i32 } poison, ptr %39, 0
  %42 = insertvalue { ptr, i32 } %41, i32 %40, 1
  resume { ptr, i32 } %42
}

; Function Attrs: mustprogress noinline uwtable
define void @_ZN5folly11RequestData25releaseRefClearDeleteSlowEv(ptr noundef nonnull align 8 dereferenceable(12) %0) #22 align 2 {
  %2 = alloca ptr, align 8
  store ptr %0, ptr %2, align 8, !tbaa !370
  %3 = load ptr, ptr %2, align 8
  call void @_ZN5folly11RequestData19releaseRefClearOnlyEv(ptr noundef nonnull align 8 dereferenceable(12) %3)
  call void @_ZN5folly11RequestData20releaseRefDeleteOnlyEv(ptr noundef nonnull align 8 dereferenceable(12) %3)
  ret void
}