; Function Attrs: mustprogress noinline uwtable
define void @_ZN5folly11RequestData25releaseRefClearDeleteSlowEv(ptr noundef nonnull align 8 dereferenceable(12) %0) local_unnamed_addr #17 align 2 personality ptr @__gxx_personality_v0 {
  %2 = getelementptr inbounds nuw i8, ptr %0, i64 8
  %3 = atomicrmw sub ptr %2, i32 4096 acq_rel, align 4
  %4 = icmp slt i32 %3, 8192
  br i1 %4, label %5, label %_ZN5folly11RequestData19releaseRefClearOnlyEv.exit

5:                                                ; preds = %1
  %6 = load ptr, ptr %0, align 8, !tbaa !135
  %7 = getelementptr inbounds nuw i8, ptr %6, i64 40
  %8 = load ptr, ptr %7, align 8
  tail call void %8(ptr noundef nonnull align 8 dereferenceable(12) %0)
  br label %_ZN5folly11RequestData19releaseRefClearOnlyEv.exit

_ZN5folly11RequestData19releaseRefClearOnlyEv.exit: ; preds = %1, %5
  %9 = atomicrmw sub ptr %2, i32 1 acq_rel, align 4
  %.not.i = icmp eq i32 %9, 1
  br i1 %.not.i, label %10, label %_ZN5folly11RequestData20releaseRefDeleteOnlyEv.exit

10:                                               ; preds = %_ZN5folly11RequestData19releaseRefClearOnlyEv.exit
  %11 = load ptr, ptr %0, align 8, !tbaa !135
  %12 = getelementptr inbounds nuw i8, ptr %11, i64 8
  %13 = load ptr, ptr %12, align 8
  tail call void %13(ptr noundef nonnull align 8 dereferenceable(12) %0) #10
  br label %_ZN5folly11RequestData20releaseRefDeleteOnlyEv.exit

_ZN5folly11RequestData20releaseRefDeleteOnlyEv.exit: ; preds = %_ZN5folly11RequestData19releaseRefClearOnlyEv.exit, %10
  ret void
}